target datalayout = "e-m:e-p270:32:32-p271:32:32-p272:64:64-i64:64-i128:128-f80:128-n8:16:32:64-S128"
target triple = "x86_64-unknown-linux-gnu"

%"class.facebook::velox::common::Filter" = type { %"class.facebook::velox::ISerializable", i8, i8, i32 }
%"class.facebook::velox::ISerializable" = type { ptr }
%"class.std::unique_ptr.55" = type { %"struct.std::__uniq_ptr_data.56" }
%"struct.std::__uniq_ptr_data.56" = type { %"class.std::__uniq_ptr_impl.57" }
%"class.std::__uniq_ptr_impl.57" = type { %"class.std::tuple.58" }
%"class.std::tuple.58" = type { %"struct.std::_Tuple_impl.59" }
%"struct.std::_Tuple_impl.59" = type { %"struct.std::_Head_base.62" }
%"struct.std::_Head_base.62" = type { ptr }
%"class.facebook::velox::common::BigintRange" = type <{ %"class.facebook::velox::common::Filter", i64, i64, i32, i32, i16, i16, i8, [3 x i8] }>
%"class.facebook::velox::common::NegatedBigintRange" = type { %"class.facebook::velox::common::Filter", %"class.std::unique_ptr.55" }

@_ZTIN8facebook5velox6common6FilterE = constant { ptr, ptr, ptr } { ptr getelementptr inbounds (ptr, ptr @_ZTVN10__cxxabiv120__si_class_type_infoE, i64 2), ptr @_ZTSN8facebook5velox6common6FilterE, ptr @_ZTIN8facebook5velox13ISerializableE }, align 8
@_ZTIN8facebook5velox6common11BigintRangeE = constant { ptr, ptr, ptr } { ptr getelementptr inbounds (ptr, ptr @_ZTVN10__cxxabiv120__si_class_type_infoE, i64 2), ptr @_ZTSN8facebook5velox6common11BigintRangeE, ptr @_ZTIN8facebook5velox6common6FilterE }, align 8
@_ZTIN8facebook5velox6common18NegatedBigintRangeE = constant { ptr, ptr, ptr } { ptr getelementptr inbounds (ptr, ptr @_ZTVN10__cxxabiv120__si_class_type_infoE, i64 2), ptr @_ZTSN8facebook5velox6common18NegatedBigintRangeE, ptr @_ZTIN8facebook5velox6common6FilterE }, align 8

; Function Attrs: mustprogress nounwind uwtable
define linkonce_odr noundef nonnull align 8 dereferenceable(8) ptr @_ZNSt10_Head_baseILm0EPN8facebook5velox6common11BigintRangeELb0EE7_M_headERKS5_(ptr noundef nonnull align 8 dereferenceable(8) %__b) #3 comdat align 2 {
entry:
  %__b.addr = alloca ptr, align 8
  store ptr %__b, ptr %__b.addr, align 8
  %0 = load ptr, ptr %__b.addr, align 8
  %_M_head_impl = getelementptr inbounds %"struct.std::_Head_base.62", ptr %0, i32 0, i32 0
  ret ptr %_M_head_impl
}

; Function Attrs: mustprogress nounwind uwtable
define linkonce_odr noundef nonnull align 8 dereferenceable(8) ptr @_ZNSt11_Tuple_implILm0EJPN8facebook5velox6common11BigintRangeESt14default_deleteIS3_EEE7_M_headERKS7_(ptr noundef nonnull align 8 dereferenceable(8) %__t) #3 comdat align 2 {
entry:
  %__t.addr = alloca ptr, align 8
  store ptr %__t, ptr %__t.addr, align 8
  %0 = load ptr, ptr %__t.addr, align 8
  %call = call noundef nonnull align 8 dereferenceable(8) ptr @_ZNSt10_Head_baseILm0EPN8facebook5velox6common11BigintRangeELb0EE7_M_headERKS5_(ptr noundef nonnull align 8 dereferenceable(8) %0) #13
  ret ptr %call
}

; Function Attrs: mustprogress nounwind uwtable
define linkonce_odr noundef nonnull align 8 dereferenceable(8) ptr @_ZSt12__get_helperILm0EPN8facebook5velox6common11BigintRangeEJSt14default_deleteIS3_EEERKT0_RKSt11_Tuple_implIXT_EJS7_DpT1_EE(ptr noundef nonnull align 8 dereferenceable(8) %__t) #3 comdat {
entry:
  %__t.addr = alloca ptr, align 8
  store ptr %__t, ptr %__t.addr, align 8
  %0 = load ptr, ptr %__t.addr, align 8
  %call = call noundef nonnull align 8 dereferenceable(8) ptr @_ZNSt11_Tuple_implILm0EJPN8facebook5velox6common11BigintRangeESt14default_deleteIS3_EEE7_M_headERKS7_(ptr noundef nonnull align 8 dereferenceable(8) %0) #13
  ret ptr %call
}

; Function Attrs: mustprogress nounwind uwtable
define linkonce_odr noundef nonnull align 8 dereferenceable(8) ptr @_ZSt3getILm0EJPN8facebook5velox6common11BigintRangeESt14default_deleteIS3_EEERKNSt13tuple_elementIXT_ESt5tupleIJDpT0_EEE4typeERKSB_(ptr noundef nonnull align 8 dereferenceable(8) %__t) #3 comdat {
entry:
  %__t.addr = alloca ptr, align 8
  store ptr %__t, ptr %__t.addr, align 8
  %0 = load ptr, ptr %__t.addr, align 8
  %call = call noundef nonnull align 8 dereferenceable(8) ptr @_ZSt12__get_helperILm0EPN8facebook5velox6common11BigintRangeEJSt14default_deleteIS3_EEERKT0_RKSt11_Tuple_implIXT_EJS7_DpT1_EE(ptr noundef nonnull align 8 dereferenceable(8) %0) #13
  ret ptr %call
}

; Function Attrs: mustprogress nounwind uwtable
define linkonce_odr noundef ptr @_ZNKSt15__uniq_ptr_implIN8facebook5velox6common11BigintRangeESt14default_deleteIS3_EE6_M_ptrEv(ptr noundef nonnull align 8 dereferenceable(8) %this) #3 comdat align 2 {
entry:
  %this.addr = alloca ptr, align 8
  store ptr %this, ptr %this.addr, align 8
  %this1 = load ptr, ptr %this.addr, align 8
  %_M_t = getelementptr inbounds %"class.std::__uniq_ptr_impl.57", ptr %this1, i32 0, i32 0
  %call = call noundef nonnull align 8 dereferenceable(8) ptr @_ZSt3getILm0EJPN8facebook5velox6common11BigintRangeESt14default_deleteIS3_EEERKNSt13tuple_elementIXT_ESt5tupleIJDpT0_EEE4typeERKSB_(ptr noundef nonnull align 8 dereferenceable(8) %_M_t) #13
  %0 = load ptr, ptr %call, align 8
  ret ptr %0
}

; Function Attrs: mustprogress nounwind uwtable
define linkonce_odr noundef ptr @_ZNKSt10unique_ptrIN8facebook5velox6common11BigintRangeESt14default_deleteIS3_EE3getEv(ptr noundef nonnull align 8 dereferenceable(8) %this) #3 comdat align 2 {
entry:
  %this.addr = alloca ptr, align 8
  store ptr %this, ptr %this.addr, align 8
  %this1 = load ptr, ptr %this.addr, align 8
  %_M_t = getelementptr inbounds %"class.std::unique_ptr.55", ptr %this1, i32 0, i32 0
  %call = call noundef ptr @_ZNKSt15__uniq_ptr_implIN8facebook5velox6common11BigintRangeESt14default_deleteIS3_EE6_M_ptrEv(ptr noundef nonnull align 8 dereferenceable(8) %_M_t) #13
  ret ptr %call
}

; Function Attrs: mustprogress nounwind uwtable
define linkonce_odr noundef i32 @_ZNK8facebook5velox6common6Filter4kindEv(ptr noundef nonnull align 8 dereferenceable(16) %this) #3 comdat align 2 {
entry:
  %this.addr = alloca ptr, align 8
  store ptr %this, ptr %this.addr, align 8
  %this1 = load ptr, ptr %this.addr, align 8
  %kind_ = getelementptr inbounds %"class.facebook::velox::common::Filter", ptr %this1, i32 0, i32 3
  %0 = load i32, ptr %kind_, align 4
  ret i32 %0
}

; Function Attrs: mustprogress uwtable
define noundef zeroext i1 @_ZNK8facebook5velox6common11BigintRange13testingEqualsERKNS1_6FilterE(ptr noundef nonnull align 8 dereferenceable(48) %this, ptr noundef nonnull align 8 dereferenceable(16) %other) unnamed_addr #0 align 2 {
entry:
  %this.addr = alloca ptr, align 8
  %other.addr = alloca ptr, align 8
  %otherBigintRange = alloca ptr, align 8
  store ptr %this, ptr %this.addr, align 8
  store ptr %other, ptr %other.addr, align 8
  %this1 = load ptr, ptr %this.addr, align 8
  %0 = load ptr, ptr %other.addr, align 8
  %1 = icmp eq ptr %0, null
  br i1 %1, label %dynamic_cast.null, label %dynamic_cast.notnull

dynamic_cast.notnull:                             ; preds = %entry
  %2 = call ptr @__dynamic_cast(ptr %0, ptr @_ZTIN8facebook5velox6common6FilterE, ptr @_ZTIN8facebook5velox6common11BigintRangeE, i64 0) #13
  br label %dynamic_cast.end

dynamic_cast.null:                                ; preds = %entry
  br label %dynamic_cast.end

dynamic_cast.end:                                 ; preds = %dynamic_cast.null, %dynamic_cast.notnull
  %3 = phi ptr [ %2, %dynamic_cast.notnull ], [ null, %dynamic_cast.null ]
  store ptr %3, ptr %otherBigintRange, align 8
  %4 = load ptr, ptr %otherBigintRange, align 8
  %cmp = icmp ne ptr %4, null
  br i1 %cmp, label %land.lhs.true, label %land.end

land.lhs.true:                                    ; preds = %dynamic_cast.end
  %5 = load ptr, ptr %other.addr, align 8
  %call = call noundef zeroext i1 @_ZNK8facebook5velox6common6Filter17testingBaseEqualsERKS2_(ptr noundef nonnull align 8 dereferenceable(16) %this1, ptr noundef nonnull align 8 dereferenceable(16) %5)
  br i1 %call, label %land.lhs.true2, label %land.end

land.lhs.true2:                                   ; preds = %land.lhs.true
  %lower_ = getelementptr inbounds %"class.facebook::velox::common::BigintRange", ptr %this1, i32 0, i32 1
  %6 = load i64, ptr %lower_, align 8
  %7 = load ptr, ptr %otherBigintRange, align 8
  %lower_3 = getelementptr inbounds %"class.facebook::velox::common::BigintRange", ptr %7, i32 0, i32 1
  %8 = load i64, ptr %lower_3, align 8
  %cmp4 = icmp eq i64 %6, %8
  br i1 %cmp4, label %land.rhs, label %land.end

land.rhs:                                         ; preds = %land.lhs.true2
  %upper_ = getelementptr inbounds %"class.facebook::velox::common::BigintRange", ptr %this1, i32 0, i32 2
  %9 = load i64, ptr %upper_, align 8
  %10 = load ptr, ptr %otherBigintRange, align 8
  %upper_5 = getelementptr inbounds %"class.facebook::velox::common::BigintRange", ptr %10, i32 0, i32 2
  %11 = load i64, ptr %upper_5, align 8
  %cmp6 = icmp eq i64 %9, %11
  br label %land.end

land.end:                                         ; preds = %land.rhs, %land.lhs.true2, %land.lhs.true, %dynamic_cast.end
  %12 = phi i1 [ false, %land.lhs.true2 ], [ false, %land.lhs.true ], [ false, %dynamic_cast.end ], [ %cmp6, %land.rhs ]
  ret i1 %12
}

; Function Attrs: mustprogress nounwind uwtable
define linkonce_odr noundef nonnull align 8 dereferenceable(48) ptr @_ZNKSt10unique_ptrIN8facebook5velox6common11BigintRangeESt14default_deleteIS3_EEdeEv(ptr noundef nonnull align 8 dereferenceable(8) %this) #3 comdat align 2 {
entry:
  %this.addr = alloca ptr, align 8
  store ptr %this, ptr %this.addr, align 8
  %this1 = load ptr, ptr %this.addr, align 8
  br label %do.body

do.body:                                          ; preds = %entry
  br label %do.cond

do.cond:                                          ; preds = %do.body
  br label %do.end

do.end:                                           ; preds = %do.cond
  %call = call noundef ptr @_ZNKSt10unique_ptrIN8facebook5velox6common11BigintRangeESt14default_deleteIS3_EE3getEv(ptr noundef nonnull align 8 dereferenceable(8) %this1) #13
  ret ptr %call
}

; Function Attrs: mustprogress nounwind uwtable
define linkonce_odr noundef ptr @_ZNKSt10unique_ptrIN8facebook5velox6common11BigintRangeESt14default_deleteIS3_EEptEv(ptr noundef nonnull align 8 dereferenceable(8) %this) #3 comdat align 2 {
entry:
  %this.addr = alloca ptr, align 8
  store ptr %this, ptr %this.addr, align 8
  %this1 = load ptr, ptr %this.addr, align 8
  %call = call noundef ptr @_ZNKSt10unique_ptrIN8facebook5velox6common11BigintRangeESt14default_deleteIS3_EE3getEv(ptr noundef nonnull align 8 dereferenceable(8) %this1) #13
  ret ptr %call
}

; Function Attrs: mustprogress uwtable
define linkonce_odr noundef zeroext i1 @_ZNK8facebook5velox6common6Filter17testingBaseEqualsERKS2_(ptr noundef nonnull align 8 dereferenceable(16) %this, ptr noundef nonnull align 8 dereferenceable(16) %other) #0 comdat align 2 {
entry:
  %this.addr = alloca ptr, align 8
  %other.addr = alloca ptr, align 8
  store ptr %this, ptr %this.addr, align 8
  store ptr %other, ptr %other.addr, align 8
  %this1 = load ptr, ptr %this.addr, align 8
  %deterministic_ = getelementptr inbounds %"class.facebook::velox::common::Filter", ptr %this1, i32 0, i32 2
  %0 = load i8, ptr %deterministic_, align 1
  %tobool = trunc i8 %0 to i1
  %conv = zext i1 %tobool to i32
  %1 = load ptr, ptr %other.addr, align 8
  %vtable = load ptr, ptr %1, align 8
  %vfn = getelementptr inbounds ptr, ptr %vtable, i64 4
  %2 = load ptr, ptr %vfn, align 8
  %call = call noundef zeroext i1 %2(ptr noundef nonnull align 8 dereferenceable(16) %1)
  %conv2 = zext i1 %call to i32
  %cmp = icmp eq i32 %conv, %conv2
  br i1 %cmp, label %land.lhs.true, label %land.end

land.lhs.true:                                    ; preds = %entry
  %nullAllowed_ = getelementptr inbounds %"class.facebook::velox::common::Filter", ptr %this1, i32 0, i32 1
  %3 = load i8, ptr %nullAllowed_, align 8
  %tobool3 = trunc i8 %3 to i1
  %conv4 = zext i1 %tobool3 to i32
  %4 = load ptr, ptr %other.addr, align 8
  %nullAllowed_5 = getelementptr inbounds %"class.facebook::velox::common::Filter", ptr %4, i32 0, i32 1
  %5 = load i8, ptr %nullAllowed_5, align 8
  %tobool6 = trunc i8 %5 to i1
  %conv7 = zext i1 %tobool6 to i32
  %cmp8 = icmp eq i32 %conv4, %conv7
  br i1 %cmp8, label %land.rhs, label %land.end

land.rhs:                                         ; preds = %land.lhs.true
  %kind_ = getelementptr inbounds %"class.facebook::velox::common::Filter", ptr %this1, i32 0, i32 3
  %6 = load i32, ptr %kind_, align 4
  %7 = load ptr, ptr %other.addr, align 8
  %call9 = call noundef i32 @_ZNK8facebook5velox6common6Filter4kindEv(ptr noundef nonnull align 8 dereferenceable(16) %7)
  %cmp10 = icmp eq i32 %6, %call9
  br label %land.end

land.end:                                         ; preds = %land.rhs, %land.lhs.true, %entry
  %8 = phi i1 [ false, %land.lhs.true ], [ false, %entry ], [ %cmp10, %land.rhs ]
  ret i1 %8
}

; Function Attrs: mustprogress uwtable
define noundef zeroext i1 @_ZNK8facebook5velox6common18NegatedBigintRange13testingEqualsERKNS1_6FilterE(ptr noundef nonnull align 8 dereferenceable(24) %this, ptr noundef nonnull align 8 dereferenceable(16) %other) unnamed_addr #0 align 2 {
entry:
  %this.addr = alloca ptr, align 8
  %other.addr = alloca ptr, align 8
  %otherNegatedBigintRange = alloca ptr, align 8
  store ptr %this, ptr %this.addr, align 8
  store ptr %other, ptr %other.addr, align 8
  %this1 = load ptr, ptr %this.addr, align 8
  %0 = load ptr, ptr %other.addr, align 8
  %1 = icmp eq ptr %0, null
  br i1 %1, label %dynamic_cast.null, label %dynamic_cast.notnull

dynamic_cast.notnull:                             ; preds = %entry
  %2 = call ptr @__dynamic_cast(ptr %0, ptr @_ZTIN8facebook5velox6common6FilterE, ptr @_ZTIN8facebook5velox6common18NegatedBigintRangeE, i64 0) #13
  br label %dynamic_cast.end

dynamic_cast.null:                                ; preds = %entry
  br label %dynamic_cast.end

dynamic_cast.end:                                 ; preds = %dynamic_cast.null, %dynamic_cast.notnull
  %3 = phi ptr [ %2, %dynamic_cast.notnull ], [ null, %dynamic_cast.null ]
  store ptr %3, ptr %otherNegatedBigintRange, align 8
  %4 = load ptr, ptr %otherNegatedBigintRange, align 8
  %cmp = icmp ne ptr %4, null
  br i1 %cmp, label %land.lhs.true, label %land.end

land.lhs.true:                                    ; preds = %dynamic_cast.end
  %5 = load ptr, ptr %other.addr, align 8
  %call = call noundef zeroext i1 @_ZNK8facebook5velox6common6Filter17testingBaseEqualsERKS2_(ptr noundef nonnull align 8 dereferenceable(16) %this1, ptr noundef nonnull align 8 dereferenceable(16) %5)
  br i1 %call, label %land.rhs, label %land.end

land.rhs:                                         ; preds = %land.lhs.true
  %nonNegated_ = getelementptr inbounds %"class.facebook::velox::common::NegatedBigintRange", ptr %this1, i32 0, i32 1
  %call2 = call noundef ptr @_ZNKSt10unique_ptrIN8facebook5velox6common11BigintRangeESt14default_deleteIS3_EEptEv(ptr noundef nonnull align 8 dereferenceable(8) %nonNegated_) #13
  %6 = load ptr, ptr %otherNegatedBigintRange, align 8
  %nonNegated_3 = getelementptr inbounds %"class.facebook::velox::common::NegatedBigintRange", ptr %6, i32 0, i32 1
  %call4 = call noundef nonnull align 8 dereferenceable(48) ptr @_ZNKSt10unique_ptrIN8facebook5velox6common11BigintRangeESt14default_deleteIS3_EEdeEv(ptr noundef nonnull align 8 dereferenceable(8) %nonNegated_3) #13
  %call5 = call noundef zeroext i1 @_ZNK8facebook5velox6common11BigintRange13testingEqualsERKNS1_6FilterE(ptr noundef nonnull align 8 dereferenceable(48) %call2, ptr noundef nonnull align 8 dereferenceable(16) %call4)
  br label %land.end

land.end:                                         ; preds = %land.rhs, %land.lhs.true, %dynamic_cast.end
  %7 = phi i1 [ false, %land.lhs.true ], [ false, %dynamic_cast.end ], [ %call5, %land.rhs ]
  ret i1 %7
}