; Function Attrs: mustprogress uwtable
define noundef zeroext i1 @_ZNK8facebook5velox6common18NegatedBigintRange13testingEqualsERKNS1_6FilterE(ptr nocapture noundef nonnull readonly align 8 dereferenceable(24) %this, ptr noundef nonnull align 8 dereferenceable(16) %other) unnamed_addr #0 align 2 {
entry:
  %0 = tail call ptr @__dynamic_cast(ptr nonnull %other, ptr nonnull @_ZTIN8facebook5velox6common6FilterE, ptr nonnull @_ZTIN8facebook5velox6common18NegatedBigintRangeE, i64 0) #34
  %cmp.not = icmp eq ptr %0, null
  br i1 %cmp.not, label %land.end, label %land.lhs.true

land.lhs.true:                                    ; preds = %entry
  %deterministic_.i = getelementptr inbounds i8, ptr %this, i64 9
  %1 = load i8, ptr %deterministic_.i, align 1
  %vtable.i = load ptr, ptr %other, align 8
  %vfn.i = getelementptr inbounds i8, ptr %vtable.i, i64 32
  %2 = load ptr, ptr %vfn.i, align 8
  %call.i = tail call noundef zeroext i1 %2(ptr noundef nonnull align 8 dereferenceable(16) %other)
  %3 = and i8 %1, 1
  %4 = icmp eq i8 %3, 0
  %cmp.i = xor i1 %4, %call.i
  br i1 %cmp.i, label %land.lhs.true.i, label %land.end

land.lhs.true.i:                                  ; preds = %land.lhs.true
  %nullAllowed_.i = getelementptr inbounds i8, ptr %this, i64 8
  %5 = load i8, ptr %nullAllowed_.i, align 8
  %nullAllowed_5.i = getelementptr inbounds i8, ptr %other, i64 8
  %6 = load i8, ptr %nullAllowed_5.i, align 8
  %7 = xor i8 %6, %5
  %8 = and i8 %7, 1
  %cmp8.i = icmp eq i8 %8, 0
  br i1 %cmp8.i, label %_ZNK8facebook5velox6common6Filter17testingBaseEqualsERKS2_.exit, label %land.end

_ZNK8facebook5velox6common6Filter17testingBaseEqualsERKS2_.exit: ; preds = %land.lhs.true.i
  %kind_.i = getelementptr inbounds i8, ptr %this, i64 12
  %9 = load i32, ptr %kind_.i, align 4
  %kind_.i.i = getelementptr inbounds i8, ptr %other, i64 12
  %10 = load i32, ptr %kind_.i.i, align 4
  %cmp10.i = icmp eq i32 %9, %10
  br i1 %cmp10.i, label %land.rhs, label %land.end

land.rhs:                                         ; preds = %_ZNK8facebook5velox6common6Filter17testingBaseEqualsERKS2_.exit
  %nonNegated_ = getelementptr inbounds i8, ptr %this, i64 16
  %11 = load ptr, ptr %nonNegated_, align 8
  %nonNegated_3 = getelementptr inbounds i8, ptr %0, i64 16
  %12 = load ptr, ptr %nonNegated_3, align 8
  %13 = tail call ptr @__dynamic_cast(ptr nonnull %12, ptr nonnull @_ZTIN8facebook5velox6common6FilterE, ptr nonnull @_ZTIN8facebook5velox6common11BigintRangeE, i64 0) #34
  %cmp.not.i = icmp eq ptr %13, null
  br i1 %cmp.not.i, label %land.end, label %land.lhs.true.i3

land.lhs.true.i3:                                 ; preds = %land.rhs
  %deterministic_.i.i = getelementptr inbounds i8, ptr %11, i64 9
  %14 = load i8, ptr %deterministic_.i.i, align 1
  %vtable.i.i = load ptr, ptr %12, align 8
  %vfn.i.i = getelementptr inbounds i8, ptr %vtable.i.i, i64 32
  %15 = load ptr, ptr %vfn.i.i, align 8
  %call.i.i = tail call noundef zeroext i1 %15(ptr noundef nonnull align 8 dereferenceable(16) %12)
  %16 = and i8 %14, 1
  %17 = icmp eq i8 %16, 0
  %cmp.i.i = xor i1 %17, %call.i.i
  br i1 %cmp.i.i, label %land.lhs.true.i.i, label %land.end

land.lhs.true.i.i:                                ; preds = %land.lhs.true.i3
  %nullAllowed_.i.i = getelementptr inbounds i8, ptr %11, i64 8
  %18 = load i8, ptr %nullAllowed_.i.i, align 8
  %nullAllowed_5.i.i = getelementptr inbounds i8, ptr %12, i64 8
  %19 = load i8, ptr %nullAllowed_5.i.i, align 8
  %20 = xor i8 %19, %18
  %21 = and i8 %20, 1
  %cmp8.i.i = icmp eq i8 %21, 0
  br i1 %cmp8.i.i, label %_ZNK8facebook5velox6common6Filter17testingBaseEqualsERKS2_.exit.i, label %land.end

_ZNK8facebook5velox6common6Filter17testingBaseEqualsERKS2_.exit.i: ; preds = %land.lhs.true.i.i
  %kind_.i.i4 = getelementptr inbounds i8, ptr %11, i64 12
  %22 = load i32, ptr %kind_.i.i4, align 4
  %kind_.i.i.i = getelementptr inbounds i8, ptr %12, i64 12
  %23 = load i32, ptr %kind_.i.i.i, align 4
  %cmp10.i.i = icmp eq i32 %22, %23
  br i1 %cmp10.i.i, label %land.lhs.true2.i, label %land.end

land.lhs.true2.i:                                 ; preds = %_ZNK8facebook5velox6common6Filter17testingBaseEqualsERKS2_.exit.i
  %lower_.i = getelementptr inbounds i8, ptr %11, i64 16
  %24 = load i64, ptr %lower_.i, align 8
  %lower_3.i = getelementptr inbounds i8, ptr %13, i64 16
  %25 = load i64, ptr %lower_3.i, align 8
  %cmp4.i = icmp eq i64 %24, %25
  br i1 %cmp4.i, label %land.rhs.i5, label %land.end

land.rhs.i5:                                      ; preds = %land.lhs.true2.i
  %upper_.i = getelementptr inbounds i8, ptr %11, i64 24
  %26 = load i64, ptr %upper_.i, align 8
  %upper_5.i = getelementptr inbounds i8, ptr %13, i64 24
  %27 = load i64, ptr %upper_5.i, align 8
  %cmp6.i = icmp eq i64 %26, %27
  br label %land.end

land.end:                                         ; preds = %land.lhs.true, %land.lhs.true.i, %land.rhs.i5, %land.lhs.true2.i, %_ZNK8facebook5velox6common6Filter17testingBaseEqualsERKS2_.exit.i, %land.lhs.true.i.i, %land.lhs.true.i3, %land.rhs, %_ZNK8facebook5velox6common6Filter17testingBaseEqualsERKS2_.exit, %entry
  %28 = phi i1 [ false, %_ZNK8facebook5velox6common6Filter17testingBaseEqualsERKS2_.exit ], [ false, %entry ], [ false, %land.lhs.true2.i ], [ false, %_ZNK8facebook5velox6common6Filter17testingBaseEqualsERKS2_.exit.i ], [ false, %land.rhs ], [ %cmp6.i, %land.rhs.i5 ], [ false, %land.lhs.true.i.i ], [ false, %land.lhs.true.i3 ], [ false, %land.lhs.true.i ], [ false, %land.lhs.true ]
  ret i1 %28
}